target datalayout = "e-m:e-p270:32:32-p271:32:32-p272:64:64-i64:64-i128:128-f80:128-n8:16:32:64-S128"
target triple = "x86_64-pc-linux-gnu"

%struct.t_atoms = type { i32, ptr, ptr, ptr, ptr, i32, ptr, ptr, i8, i8, i8, i8, i8 }

@.str.2 = private unnamed_addr constant [122 x i8] c"generated/home/dtcxzyw/WorkSpace/Projects/compilers/llvm-opt-benchmark/bench/gromacs/gromacs/src/gromacs/fileio/groio.cpp\00", align 1
@.str.41 = private unnamed_addr constant [3 x i8] c"aa\00", align 1

; Function Attrs: inlinehint mustprogress uwtable
define internal void @_ZL14gmx_sfree_implIiEvPKcS1_iPT_(ptr noundef %0, ptr noundef %1, i32 noundef %2, ptr noundef %3) #8 {
  %5 = alloca ptr, align 8
  %6 = alloca ptr, align 8
  %7 = alloca i32, align 4
  %8 = alloca ptr, align 8
  store ptr %0, ptr %5, align 8, !tbaa !13
  store ptr %1, ptr %6, align 8, !tbaa !13
  store i32 %2, ptr %7, align 4, !tbaa !74
  store ptr %3, ptr %8, align 8, !tbaa !9
  %9 = load ptr, ptr %5, align 8, !tbaa !13
  %10 = load ptr, ptr %6, align 8, !tbaa !13
  %11 = load i32, ptr %7, align 4, !tbaa !74
  %12 = load ptr, ptr %8, align 8, !tbaa !9
  call void @_Z9save_freePKcS0_iPv(ptr noundef %9, ptr noundef %10, i32 noundef %11, ptr noundef %12)
  ret void
}

; Function Attrs: inlinehint mustprogress uwtable
define internal void @_ZL13gmx_snew_implIiEvPKcS1_iRPT_m(ptr noundef %0, ptr noundef %1, i32 noundef %2, ptr noundef nonnull align 8 dereferenceable(8) %3, i64 noundef %4) #8 {
  %6 = alloca ptr, align 8
  %7 = alloca ptr, align 8
  %8 = alloca i32, align 4
  %9 = alloca ptr, align 8
  %10 = alloca i64, align 8
  store ptr %0, ptr %6, align 8, !tbaa !13
  store ptr %1, ptr %7, align 8, !tbaa !13
  store i32 %2, ptr %8, align 4, !tbaa !74
  store ptr %3, ptr %9, align 8, !tbaa !209
  store i64 %4, ptr %10, align 8, !tbaa !18
  %11 = load ptr, ptr %6, align 8, !tbaa !13
  %12 = load ptr, ptr %7, align 8, !tbaa !13
  %13 = load i32, ptr %8, align 4, !tbaa !74
  %14 = load i64, ptr %10, align 8, !tbaa !18
  %15 = call noundef ptr @_Z11save_callocPKcS0_imm(ptr noundef %11, ptr noundef %12, i32 noundef %13, i64 noundef %14, i64 noundef 4)
  %16 = load ptr, ptr %9, align 8, !tbaa !209
  store ptr %15, ptr %16, align 8, !tbaa !9
  ret void
}

; Function Attrs: mustprogress uwtable
define void @_Z13write_hconf_pP8_IO_FILEPKcPK7t_atomsPA3_KfS8_S8_(ptr noundef %0, ptr noundef %1, ptr noundef %2, ptr noundef %3, ptr noundef %4, ptr noundef %5) #0 {
  %7 = alloca ptr, align 8
  %8 = alloca ptr, align 8
  %9 = alloca ptr, align 8
  %10 = alloca ptr, align 8
  %11 = alloca ptr, align 8
  %12 = alloca ptr, align 8
  %13 = alloca ptr, align 8
  %14 = alloca i32, align 4
  store ptr %0, ptr %7, align 8, !tbaa !11
  store ptr %1, ptr %8, align 8, !tbaa !13
  store ptr %2, ptr %9, align 8, !tbaa !70
  store ptr %3, ptr %10, align 8, !tbaa !72
  store ptr %4, ptr %11, align 8, !tbaa !72
  store ptr %5, ptr %12, align 8, !tbaa !72
  call void @llvm.lifetime.start.p0(i64 8, ptr %13) #13
  call void @llvm.lifetime.start.p0(i64 4, ptr %14) #13
  %15 = load ptr, ptr %9, align 8, !tbaa !70
  %16 = getelementptr inbounds nuw %struct.t_atoms, ptr %15, i32 0, i32 0
  %17 = load i32, ptr %16, align 8, !tbaa !78
  %18 = sext i32 %17 to i64
  call void @_ZL13gmx_snew_implIiEvPKcS1_iRPT_m(ptr noundef @.str.41, ptr noundef @.str.2, i32 noundef 580, ptr noundef nonnull align 8 dereferenceable(8) %13, i64 noundef %18)
  store i32 0, ptr %14, align 4, !tbaa !74
  br label %19

19:                                               ; preds = %31, %6
  %20 = load i32, ptr %14, align 4, !tbaa !74
  %21 = load ptr, ptr %9, align 8, !tbaa !70
  %22 = getelementptr inbounds nuw %struct.t_atoms, ptr %21, i32 0, i32 0
  %23 = load i32, ptr %22, align 8, !tbaa !78
  %24 = icmp slt i32 %20, %23
  br i1 %24, label %25, label %34

25:                                               ; preds = %19
  %26 = load i32, ptr %14, align 4, !tbaa !74
  %27 = load ptr, ptr %13, align 8, !tbaa !9
  %28 = load i32, ptr %14, align 4, !tbaa !74
  %29 = sext i32 %28 to i64
  %30 = getelementptr inbounds i32, ptr %27, i64 %29
  store i32 %26, ptr %30, align 4, !tbaa !74
  br label %31

31:                                               ; preds = %25
  %32 = load i32, ptr %14, align 4, !tbaa !74
  %33 = add nsw i32 %32, 1
  store i32 %33, ptr %14, align 4, !tbaa !74
  br label %19, !llvm.loop !208

34:                                               ; preds = %19
  %35 = load ptr, ptr %7, align 8, !tbaa !11
  %36 = load ptr, ptr %8, align 8, !tbaa !13
  %37 = load ptr, ptr %9, align 8, !tbaa !70
  %38 = load ptr, ptr %9, align 8, !tbaa !70
  %39 = getelementptr inbounds nuw %struct.t_atoms, ptr %38, i32 0, i32 0
  %40 = load i32, ptr %39, align 8, !tbaa !78
  %41 = load ptr, ptr %13, align 8, !tbaa !9
  %42 = load ptr, ptr %10, align 8, !tbaa !72
  %43 = load ptr, ptr %11, align 8, !tbaa !72
  %44 = load ptr, ptr %12, align 8, !tbaa !72
  call void @_Z21write_hconf_indexed_pP8_IO_FILEPKcPK7t_atomsiPKiPA3_KfSA_SA_(ptr noundef %35, ptr noundef %36, ptr noundef %37, i32 noundef %40, ptr noundef %41, ptr noundef %42, ptr noundef %43, ptr noundef %44)
  %45 = load ptr, ptr %13, align 8, !tbaa !9
  call void @_ZL14gmx_sfree_implIiEvPKcS1_iPT_(ptr noundef @.str.41, ptr noundef @.str.2, i32 noundef 586, ptr noundef %45)
  call void @llvm.lifetime.end.p0(i64 4, ptr %14) #13
  call void @llvm.lifetime.end.p0(i64 8, ptr %13) #13
  ret void
}