; Function Attrs: mustprogress uwtable
define void @_Z13write_hconf_pP8_IO_FILEPKcPK7t_atomsPA3_KfS8_S8_(ptr noundef captures(none) %0, ptr noundef %1, ptr noundef readonly captures(none) %2, ptr noundef readonly captures(none) %3, ptr noundef %4, ptr noundef readonly captures(none) %5) local_unnamed_addr #0 {
  %7 = load i32, ptr %2, align 8, !tbaa !21
  %8 = sext i32 %7 to i64
  %9 = tail call noundef ptr @_Z11save_callocPKcS0_imm(ptr noundef nonnull @.str.41, ptr noundef nonnull @.str.2, i32 noundef 580, i64 noundef range(i64 -2147483648, 2147483648) %8, i64 noundef 4)
  %10 = load i32, ptr %2, align 8, !tbaa !21
  %11 = icmp sgt i32 %10, 0
  br i1 %11, label %.lr.ph, label %._crit_edge

.lr.ph:                                           ; preds = %6, %.lr.ph
  %indvars.iv = phi i64 [ %indvars.iv.next, %.lr.ph ], [ 0, %6 ]
  %12 = getelementptr inbounds nuw i32, ptr %9, i64 %indvars.iv
  %13 = trunc nuw nsw i64 %indvars.iv to i32
  store i32 %13, ptr %12, align 4, !tbaa !19
  %indvars.iv.next = add nuw nsw i64 %indvars.iv, 1
  %14 = load i32, ptr %2, align 8, !tbaa !21
  %15 = sext i32 %14 to i64
  %16 = icmp slt i64 %indvars.iv.next, %15
  br i1 %16, label %.lr.ph, label %._crit_edge, !llvm.loop !140

._crit_edge:                                      ; preds = %.lr.ph, %6
  %.lcssa = phi i32 [ %10, %6 ], [ %14, %.lr.ph ]
  tail call void @_Z21write_hconf_indexed_pP8_IO_FILEPKcPK7t_atomsiPKiPA3_KfSA_SA_(ptr noundef %0, ptr noundef %1, ptr noundef nonnull %2, i32 noundef %.lcssa, ptr noundef %9, ptr noundef %3, ptr noundef %4, ptr noundef %5)
  tail call void @_Z9save_freePKcS0_iPv(ptr noundef nonnull @.str.41, ptr noundef nonnull @.str.2, i32 noundef 586, ptr noundef %9)
  ret void
}